target datalayout = "e-m:e-p270:32:32-p271:32:32-p272:64:64-i64:64-i128:128-f80:128-n8:16:32:64-S128"
target triple = "x86_64-pc-linux-gnu"

%struct.CLibrary = type { ptr, ptr }
%struct.GCRef = type { i64 }
%struct.lua_State = type { %struct.GCRef, i8, i8, i8, i8, %struct.MRef, %struct.GCRef, ptr, ptr, %struct.MRef, %struct.MRef, %struct.GCRef, %struct.GCRef, ptr, i32 }
%struct.MRef = type { i64 }
%union.TValue = type { i64 }
%struct.GCudata = type { %struct.GCRef, i8, i8, i8, i8, %struct.GCRef, i32, %struct.GCRef, i32 }

@.str = private unnamed_addr constant [24 x i8] c"store to dead GC object\00", align 1

; Function Attrs: alwaysinline nounwind uwtable
define internal void @checklivetv(ptr noundef %0, ptr noundef %1, ptr noundef %2) #4 {
  %4 = alloca ptr, align 8
  %5 = alloca ptr, align 8
  %6 = alloca ptr, align 8
  store ptr %0, ptr %4, align 8, !tbaa !4
  store ptr %1, ptr %5, align 8, !tbaa !16
  store ptr %2, ptr %6, align 8, !tbaa !31
  ret void
}

; Function Attrs: alwaysinline nounwind uwtable
define internal void @setgcVraw(ptr noundef %0, ptr noundef %1, i32 noundef %2) #4 {
  %4 = alloca ptr, align 8
  %5 = alloca ptr, align 8
  %6 = alloca i32, align 4
  store ptr %0, ptr %4, align 8, !tbaa !16
  store ptr %1, ptr %5, align 8, !tbaa !63
  store i32 %2, ptr %6, align 4, !tbaa !21
  %7 = load ptr, ptr %5, align 8, !tbaa !63
  %8 = ptrtoint ptr %7 to i64
  %9 = load i32, ptr %6, align 4, !tbaa !21
  %10 = zext i32 %9 to i64
  %11 = shl i64 %10, 47
  %12 = or i64 %8, %11
  %13 = load ptr, ptr %4, align 8, !tbaa !16
  %14 = getelementptr inbounds nuw %struct.GCRef, ptr %13, i32 0, i32 0
  store i64 %12, ptr %14, align 8, !tbaa !18
  ret void
}

; Function Attrs: alwaysinline nounwind uwtable
define internal void @setgcV(ptr noundef %0, ptr noundef %1, ptr noundef %2, i32 noundef %3) #4 {
  %5 = alloca ptr, align 8
  %6 = alloca ptr, align 8
  %7 = alloca ptr, align 8
  %8 = alloca i32, align 4
  store ptr %0, ptr %5, align 8, !tbaa !4
  store ptr %1, ptr %6, align 8, !tbaa !16
  store ptr %2, ptr %7, align 8, !tbaa !63
  store i32 %3, ptr %8, align 4, !tbaa !21
  %9 = load ptr, ptr %6, align 8, !tbaa !16
  %10 = load ptr, ptr %7, align 8, !tbaa !63
  %11 = load i32, ptr %8, align 4, !tbaa !21
  call void @setgcVraw(ptr noundef %9, ptr noundef %10, i32 noundef %11)
  %12 = load ptr, ptr %5, align 8, !tbaa !4
  %13 = load ptr, ptr %6, align 8, !tbaa !16
  call void @checklivetv(ptr noundef %12, ptr noundef %13, ptr noundef @.str)
  ret void
}

; Function Attrs: alwaysinline nounwind uwtable
define internal void @setudataV(ptr noundef %0, ptr noundef %1, ptr noundef %2) #4 {
  %4 = alloca ptr, align 8
  %5 = alloca ptr, align 8
  %6 = alloca ptr, align 8
  store ptr %0, ptr %4, align 8, !tbaa !4
  store ptr %1, ptr %5, align 8, !tbaa !16
  store ptr %2, ptr %6, align 8, !tbaa !68
  %7 = load ptr, ptr %4, align 8, !tbaa !4
  %8 = load ptr, ptr %5, align 8, !tbaa !16
  %9 = load ptr, ptr %6, align 8, !tbaa !68
  call void @setgcV(ptr noundef %7, ptr noundef %8, ptr noundef %9, i32 noundef -13)
  ret void
}

; Function Attrs: nounwind uwtable
define internal ptr @clib_new(ptr noundef %0, ptr noundef %1) #0 {
  %3 = alloca ptr, align 8
  %4 = alloca ptr, align 8
  %5 = alloca ptr, align 8
  %6 = alloca ptr, align 8
  %7 = alloca ptr, align 8
  store ptr %0, ptr %3, align 8, !tbaa !4
  store ptr %1, ptr %4, align 8, !tbaa !62
  call void @llvm.lifetime.start.p0(i64 8, ptr %5) #9
  %8 = load ptr, ptr %3, align 8, !tbaa !4
  %9 = call ptr @lj_tab_new(ptr noundef %8, i32 noundef 0, i32 noundef 0)
  store ptr %9, ptr %5, align 8, !tbaa !62
  call void @llvm.lifetime.start.p0(i64 8, ptr %6) #9
  %10 = load ptr, ptr %3, align 8, !tbaa !4
  %11 = load ptr, ptr %5, align 8, !tbaa !62
  %12 = call ptr @lj_udata_new(ptr noundef %10, i32 noundef 16, ptr noundef %11)
  store ptr %12, ptr %6, align 8, !tbaa !68
  call void @llvm.lifetime.start.p0(i64 8, ptr %7) #9
  %13 = load ptr, ptr %6, align 8, !tbaa !68
  %14 = getelementptr inbounds %struct.GCudata, ptr %13, i64 1
  store ptr %14, ptr %7, align 8, !tbaa !9
  %15 = load ptr, ptr %5, align 8, !tbaa !62
  %16 = load ptr, ptr %7, align 8, !tbaa !9
  %17 = getelementptr inbounds nuw %struct.CLibrary, ptr %16, i32 0, i32 1
  store ptr %15, ptr %17, align 8, !tbaa !13
  %18 = load ptr, ptr %6, align 8, !tbaa !68
  %19 = getelementptr inbounds nuw %struct.GCudata, ptr %18, i32 0, i32 3
  store i8 2, ptr %19, align 2, !tbaa !70
  %20 = load ptr, ptr %4, align 8, !tbaa !62
  %21 = ptrtoint ptr %20 to i64
  %22 = load ptr, ptr %6, align 8, !tbaa !68
  %23 = getelementptr inbounds nuw %struct.GCudata, ptr %22, i32 0, i32 7
  %24 = getelementptr inbounds nuw %struct.GCRef, ptr %23, i32 0, i32 0
  store i64 %21, ptr %24, align 8, !tbaa !72
  %25 = load ptr, ptr %3, align 8, !tbaa !4
  %26 = load ptr, ptr %3, align 8, !tbaa !4
  %27 = getelementptr inbounds nuw %struct.lua_State, ptr %26, i32 0, i32 8
  %28 = load ptr, ptr %27, align 8, !tbaa !73
  %29 = getelementptr inbounds nuw %union.TValue, ptr %28, i32 1
  store ptr %29, ptr %27, align 8, !tbaa !73
  %30 = load ptr, ptr %6, align 8, !tbaa !68
  call void @setudataV(ptr noundef %25, ptr noundef %28, ptr noundef %30)
  %31 = load ptr, ptr %7, align 8, !tbaa !9
  call void @llvm.lifetime.end.p0(i64 8, ptr %7) #9
  call void @llvm.lifetime.end.p0(i64 8, ptr %6) #9
  call void @llvm.lifetime.end.p0(i64 8, ptr %5) #9
  ret ptr %31
}

; Function Attrs: nounwind uwtable
define hidden void @lj_clib_default(ptr noundef %0, ptr noundef %1) #0 {
  %3 = alloca ptr, align 8
  %4 = alloca ptr, align 8
  %5 = alloca ptr, align 8
  store ptr %0, ptr %3, align 8, !tbaa !4
  store ptr %1, ptr %4, align 8, !tbaa !62
  call void @llvm.lifetime.start.p0(i64 8, ptr %5) #9
  %6 = load ptr, ptr %3, align 8, !tbaa !4
  %7 = load ptr, ptr %4, align 8, !tbaa !62
  %8 = call ptr @clib_new(ptr noundef %6, ptr noundef %7)
  store ptr %8, ptr %5, align 8, !tbaa !9
  %9 = load ptr, ptr %5, align 8, !tbaa !9
  %10 = getelementptr inbounds nuw %struct.CLibrary, ptr %9, i32 0, i32 0
  store ptr null, ptr %10, align 8, !tbaa !57
  call void @llvm.lifetime.end.p0(i64 8, ptr %5) #9
  ret void
}