; Function Attrs: nounwind uwtable
define hidden void @lj_clib_default(ptr noundef %0, ptr noundef %1) local_unnamed_addr #0 {
  %3 = tail call ptr @lj_tab_new(ptr noundef %0, i32 noundef 0, i32 noundef 0) #9
  %4 = tail call ptr @lj_udata_new(ptr noundef %0, i32 noundef 16, ptr noundef %3) #9
  %5 = getelementptr inbounds nuw i8, ptr %4, i64 48
  %6 = getelementptr inbounds nuw i8, ptr %4, i64 56
  store ptr %3, ptr %6, align 8, !tbaa !4
  %7 = getelementptr inbounds nuw i8, ptr %4, i64 10
  store i8 2, ptr %7, align 2, !tbaa !60
  %8 = ptrtoint ptr %1 to i64
  %9 = getelementptr inbounds nuw i8, ptr %4, i64 32
  store i64 %8, ptr %9, align 8, !tbaa !62
  %10 = getelementptr inbounds nuw i8, ptr %0, i64 40
  %11 = load ptr, ptr %10, align 8, !tbaa !55
  %12 = getelementptr inbounds nuw i8, ptr %11, i64 8
  store ptr %12, ptr %10, align 8, !tbaa !55
  %13 = ptrtoint ptr %4 to i64
  %14 = or i64 %13, -1829587348619264
  store i64 %14, ptr %11, align 8, !tbaa !10
  store ptr null, ptr %5, align 8, !tbaa !46
  ret void
}